00000000002e9280 T _ZN16embassy_executor3raw11poll_exited17h223ed71d5528d349E
00000000002e9340 t _ZN16embassy_executor3raw12SyncExecutor4poll17h77365628f175393cE
00000000002e9a80 t _ZN16embassy_executor3raw12SyncExecutor4poll28_$u7b$$u7b$closure$u7d$$u7d$17hdbef770c230599fcE
00000000000406f0 t _ZN16embassy_executor3raw20TaskStorage$LT$F$GT$4poll17h14cadb8bfe6eae70E
0000000000040890 t _ZN16embassy_executor3raw20TaskStorage$LT$F$GT$4poll17h65bff4f863f50d59E
0000000000040a30 t _ZN16embassy_executor3raw20TaskStorage$LT$F$GT$4poll17he753c3371398b28aE
00000000002e93b0 T _ZN16embassy_executor3raw8Executor4poll17hf68ce5f2066dfcdcE
000000000030c000 T _ZN3std4sync6poison7condvar7Condvar10notify_one17h356f45651bc593beE
0000000000041870 t _ZN4tick20level_0_await_notify17h34fbba63c47846c7E
0000000000041930 t _ZN4tick20level_1_await_notify17h821041ec48621411E
00000000000419f0 t _ZN4tick20level_2_await_notify17h3ad761177088fa5bE
00000000002c4510 T _ZN75_$LT$embassy_time..timer..Timer$u20$as$u20$core..future..future..Future$GT$4poll17h16e932b94c178e16E
